target datalayout = "e-m:e-p270:32:32-p271:32:32-p272:64:64-i64:64-i128:128-f80:128-n8:16:32:64-S128"
target triple = "x86_64-unknown-linux-gnu"

%"class.FLAC::Decoder::Stream" = type { ptr, ptr }

; Function Attrs: mustprogress nounwind sspstrong uwtable
define void @_ZN4FLAC7Decoder6StreamD2Ev(ptr noundef nonnull align 8 dereferenceable(16) %this) unnamed_addr #2 align 2 personality ptr @__gxx_personality_v0 {
entry:
  %this.addr = alloca ptr, align 8
  store ptr %this, ptr %this.addr, align 8
  %this1 = load ptr, ptr %this.addr, align 8
  store ptr getelementptr inbounds ({ [39 x ptr] }, ptr @_ZTVN4FLAC7Decoder6StreamE, i32 0, i32 0, i32 2), ptr %this1, align 8
  %decoder_ = getelementptr inbounds %"class.FLAC::Decoder::Stream", ptr %this1, i32 0, i32 1
  %0 = load ptr, ptr %decoder_, align 8
  %cmp = icmp ne ptr null, %0
  br i1 %cmp, label %if.then, label %if.end

if.then:                                          ; preds = %entry
  %decoder_2 = getelementptr inbounds %"class.FLAC::Decoder::Stream", ptr %this1, i32 0, i32 1
  %1 = load ptr, ptr %decoder_2, align 8
  %call = invoke i32 @FLAC__stream_decoder_finish(ptr noundef %1)
          to label %invoke.cont unwind label %terminate.lpad

invoke.cont:                                      ; preds = %if.then
  %decoder_3 = getelementptr inbounds %"class.FLAC::Decoder::Stream", ptr %this1, i32 0, i32 1
  %2 = load ptr, ptr %decoder_3, align 8
  invoke void @FLAC__stream_decoder_delete(ptr noundef %2)
          to label %invoke.cont4 unwind label %terminate.lpad

invoke.cont4:                                     ; preds = %invoke.cont
  br label %if.end

if.end:                                           ; preds = %invoke.cont4, %entry
  ret void

terminate.lpad:                                   ; preds = %invoke.cont, %if.then
  %3 = landingpad { ptr, i32 }
          catch ptr null
  %4 = extractvalue { ptr, i32 } %3, 0
  call void @__clang_call_terminate(ptr %4) #6
  unreachable
}

; Function Attrs: mustprogress nounwind sspstrong uwtable
define void @_ZN4FLAC7Decoder4FileD2Ev(ptr noundef nonnull align 8 dereferenceable(16) %this) unnamed_addr #2 align 2 {
entry:
  %this.addr = alloca ptr, align 8
  store ptr %this, ptr %this.addr, align 8
  %this1 = load ptr, ptr %this.addr, align 8
  call void @_ZN4FLAC7Decoder6StreamD2Ev(ptr noundef nonnull align 8 dereferenceable(16) %this1) #7
  ret void
}